target datalayout = "e-m:e-p270:32:32-p271:32:32-p272:64:64-i64:64-i128:128-f80:128-n8:16:32:64-S128"
target triple = "x86_64-pc-linux-gnu"

@hf_zbee_zdp_nwk_addr = external global i32, align 4
@.str.1 = private unnamed_addr constant [19 x i8] c", Nwk Addr: 0x%04x\00", align 1

; Function Attrs: nounwind uwtable
define hidden void @dissect_zbee_zdp_req_power_desc(ptr noundef %0, ptr noundef %1, ptr noundef %2) #0 {
  %4 = alloca ptr, align 8
  %5 = alloca ptr, align 8
  %6 = alloca ptr, align 8
  %7 = alloca i32, align 4
  %8 = alloca i32, align 4
  store ptr %0, ptr %4, align 8
  store ptr %1, ptr %5, align 8
  store ptr %2, ptr %6, align 8
  store i32 0, ptr %7, align 4
  %9 = load ptr, ptr %6, align 8
  %10 = load i32, ptr @hf_zbee_zdp_nwk_addr, align 4
  %11 = load ptr, ptr %4, align 8
  %12 = load i32, ptr %7, align 4
  %13 = call ptr @proto_tree_add_item_ret_uint(ptr noundef %9, i32 noundef %10, ptr noundef %11, i32 noundef %12, i32 noundef 2, i32 noundef -2147483648, ptr noundef %8)
  %14 = load i32, ptr %7, align 4
  %15 = add i32 %14, 2
  store i32 %15, ptr %7, align 4
  %16 = load ptr, ptr %6, align 8
  %17 = load ptr, ptr %5, align 8
  %18 = load i32, ptr %8, align 4
  call void (ptr, ptr, ptr, ...) @zbee_append_info(ptr noundef %16, ptr noundef %17, ptr noundef @.str.1, i32 noundef %18)
  %19 = load ptr, ptr %4, align 8
  %20 = load i32, ptr %7, align 4
  %21 = load ptr, ptr %5, align 8
  %22 = load ptr, ptr %6, align 8
  call void @zdp_dump_excess(ptr noundef %19, i32 noundef %20, ptr noundef %21, ptr noundef %22)
  ret void
}