; Function Attrs: nounwind uwtable
define hidden void @dissect_zbee_zdp_req_power_desc(ptr noundef %0, ptr noundef %1, ptr noundef %2) local_unnamed_addr #0 {
  %4 = alloca i32, align 4
  %5 = load i32, ptr @hf_zbee_zdp_nwk_addr, align 4
  %6 = call ptr @proto_tree_add_item_ret_uint(ptr noundef %2, i32 noundef %5, ptr noundef %0, i32 noundef 0, i32 noundef 2, i32 noundef -2147483648, ptr noundef nonnull %4) #2
  %7 = load i32, ptr %4, align 4
  call void (ptr, ptr, ptr, ...) @zbee_append_info(ptr noundef %2, ptr noundef %1, ptr noundef nonnull @.str.1, i32 noundef %7) #2
  call void @zdp_dump_excess(ptr noundef %0, i32 noundef 2, ptr noundef %1, ptr noundef %2) #2
  ret void
}